target datalayout = "e-m:e-p270:32:32-p271:32:32-p272:64:64-i64:64-i128:128-f80:128-n8:16:32:64-S128"
target triple = "x86_64-pc-linux-gnu"

%struct._dcerpc_info = type { ptr, i32, i64, i8, i32, i32, i32, i32, i32, i32, i32, i32, i32, i32, ptr, ptr, ptr }

@hf_lsarpc_efs_blob_len = internal global i32 -1, align 4
@.str.899 = private unnamed_addr constant [8 x i8] c"efsblob\00", align 1

; Function Attrs: nounwind uwtable
define internal i32 @lsarpc_dissect_element_lsa_DomainInfoEfs_efs_blob_(ptr noundef %0, i32 noundef %1, ptr noundef %2, ptr noundef %3, ptr noundef %4, ptr noundef %5) #0 {
  %7 = alloca i32, align 4
  %8 = alloca ptr, align 8
  %9 = alloca i32, align 4
  %10 = alloca ptr, align 8
  %11 = alloca ptr, align 8
  %12 = alloca ptr, align 8
  %13 = alloca ptr, align 8
  %14 = alloca ptr, align 8
  %15 = alloca i32, align 4
  %16 = alloca i32, align 4
  %17 = alloca ptr, align 8
  store ptr %0, ptr %8, align 8
  store i32 %1, ptr %9, align 4
  store ptr %2, ptr %10, align 8
  store ptr %3, ptr %11, align 8
  store ptr %4, ptr %12, align 8
  store ptr %5, ptr %13, align 8
  %18 = load ptr, ptr %12, align 8
  %19 = getelementptr inbounds %struct._dcerpc_info, ptr %18, i32 0, i32 4
  %20 = load i32, ptr %19, align 4
  %21 = icmp ne i32 %20, 0
  br i1 %21, label %22, label %24

22:                                               ; preds = %6
  %23 = load i32, ptr %9, align 4
  store i32 %23, ptr %7, align 4
  br label %63

24:                                               ; preds = %6
  %25 = load ptr, ptr %8, align 8
  %26 = load i32, ptr %9, align 4
  %27 = load ptr, ptr %10, align 8
  %28 = load ptr, ptr %11, align 8
  %29 = load ptr, ptr %12, align 8
  %30 = load ptr, ptr %13, align 8
  %31 = load i32, ptr @hf_lsarpc_efs_blob_len, align 4
  %32 = call i32 @dissect_ndr_uint32(ptr noundef %25, i32 noundef %26, ptr noundef %27, ptr noundef %28, ptr noundef %29, ptr noundef %30, i32 noundef %31, ptr noundef %16)
  store i32 %32, ptr %9, align 4
  %33 = load i32, ptr %16, align 4
  store i32 %33, ptr %15, align 4
  %34 = load i32, ptr %15, align 4
  %35 = load ptr, ptr %8, align 8
  %36 = load i32, ptr %9, align 4
  %37 = call i32 @tvb_captured_length_remaining(ptr noundef %35, i32 noundef %36)
  %38 = icmp sgt i32 %34, %37
  br i1 %38, label %39, label %43

39:                                               ; preds = %24
  %40 = load ptr, ptr %8, align 8
  %41 = load i32, ptr %9, align 4
  %42 = call i32 @tvb_captured_length_remaining(ptr noundef %40, i32 noundef %41)
  store i32 %42, ptr %15, align 4
  br label %43

43:                                               ; preds = %39, %24
  %44 = load ptr, ptr %8, align 8
  %45 = load i32, ptr %9, align 4
  %46 = load i32, ptr %15, align 4
  %47 = load i32, ptr %16, align 4
  %48 = call ptr @tvb_new_subset_length_caplen(ptr noundef %44, i32 noundef %45, i32 noundef %46, i32 noundef %47)
  store ptr %48, ptr %14, align 8
  %49 = call ptr @find_dissector(ptr noundef @.str.899)
  store ptr %49, ptr %17, align 8
  %50 = load ptr, ptr %17, align 8
  %51 = icmp ne ptr %50, null
  br i1 %51, label %52, label %58

52:                                               ; preds = %43
  %53 = load ptr, ptr %17, align 8
  %54 = load ptr, ptr %14, align 8
  %55 = load ptr, ptr %10, align 8
  %56 = load ptr, ptr %11, align 8
  %57 = call i32 @call_dissector(ptr noundef %53, ptr noundef %54, ptr noundef %55, ptr noundef %56)
  br label %58

58:                                               ; preds = %52, %43
  %59 = load i32, ptr %16, align 4
  %60 = load i32, ptr %9, align 4
  %61 = add i32 %60, %59
  store i32 %61, ptr %9, align 4
  %62 = load i32, ptr %9, align 4
  store i32 %62, ptr %7, align 4
  br label %63

63:                                               ; preds = %58, %22
  %64 = load i32, ptr %7, align 4
  ret i32 %64
}