; Function Attrs: nounwind uwtable
define internal i32 @lsarpc_dissect_element_lsa_DomainInfoEfs_efs_blob_(ptr noundef %0, i32 noundef %1, ptr noundef %2, ptr noundef %3, ptr noundef %4, ptr noundef %5) #0 {
  %7 = alloca i32, align 4
  %8 = getelementptr inbounds nuw i8, ptr %4, i64 28
  %9 = load i32, ptr %8, align 4
  %.not = icmp eq i32 %9, 0
  br i1 %.not, label %10, label %27

10:                                               ; preds = %6
  %11 = load i32, ptr @hf_lsarpc_efs_blob_len, align 4
  %12 = call i32 @dissect_ndr_uint32(ptr noundef %0, i32 noundef %1, ptr noundef %2, ptr noundef %3, ptr noundef nonnull %4, ptr noundef %5, i32 noundef %11, ptr noundef nonnull %7) #5
  %13 = load i32, ptr %7, align 4
  %14 = call i32 @tvb_captured_length_remaining(ptr noundef %0, i32 noundef %12) #5
  %15 = icmp sgt i32 %13, %14
  br i1 %15, label %16, label %18

16:                                               ; preds = %10
  %17 = call i32 @tvb_captured_length_remaining(ptr noundef %0, i32 noundef %12) #5
  br label %18

18:                                               ; preds = %16, %10
  %.023 = phi i32 [ %17, %16 ], [ %13, %10 ]
  %19 = load i32, ptr %7, align 4
  %20 = call ptr @tvb_new_subset_length_caplen(ptr noundef %0, i32 noundef %12, i32 noundef %.023, i32 noundef %19) #5
  %21 = call ptr @find_dissector(ptr noundef nonnull @.str.899) #5
  %.not26 = icmp eq ptr %21, null
  br i1 %.not26, label %24, label %22

22:                                               ; preds = %18
  %23 = call i32 @call_dissector(ptr noundef nonnull %21, ptr noundef %20, ptr noundef %2, ptr noundef %3) #5
  br label %24

24:                                               ; preds = %22, %18
  %25 = load i32, ptr %7, align 4
  %26 = add i32 %25, %12
  br label %27

27:                                               ; preds = %6, %24
  %.0 = phi i32 [ %26, %24 ], [ %1, %6 ]
  ret i32 %.0
}